target datalayout = "e-m:e-p270:32:32-p271:32:32-p272:64:64-i64:64-i128:128-f80:128-n8:16:32:64-S128"
target triple = "x86_64-pc-linux-gnu"

%struct._GLFWlibrary = type { i32, %struct.GLFWallocator, %struct._GLFWplatform, %struct.anon, ptr, ptr, ptr, ptr, i32, i32, [16 x %struct._GLFWjoystick], ptr, i32, %struct._GLFWtls, %struct._GLFWtls, %struct._GLFWmutex, %struct.anon.8, %struct.anon.9, %struct.anon.10, %struct.anon.11, %struct.anon.12, %struct._GLFWlibraryWayland, %struct._GLFWlibraryX11, %struct._GLFWlibraryNull, %struct._GLFWlibraryGLX, %struct._GLFWlibraryLinux }
%struct.GLFWallocator = type { ptr, ptr, ptr, ptr }
%struct._GLFWplatform = type { i32, ptr, ptr, ptr, ptr, ptr, ptr, ptr, ptr, ptr, ptr, ptr, ptr, ptr, ptr, ptr, ptr, ptr, ptr, ptr, ptr, ptr, ptr, ptr, ptr, ptr, ptr, ptr, ptr, ptr, ptr, ptr, ptr, ptr, ptr, ptr, ptr, ptr, ptr, ptr, ptr, ptr, ptr, ptr, ptr, ptr, ptr, ptr, ptr, ptr, ptr, ptr, ptr, ptr, ptr, ptr, ptr, ptr, ptr, ptr, ptr, ptr, ptr, ptr, ptr, ptr, ptr, ptr, ptr, ptr, ptr, ptr }
%struct.anon = type { %struct._GLFWinitconfig, %struct._GLFWfbconfig, %struct._GLFWwndconfig, %struct._GLFWctxconfig, i32 }
%struct._GLFWinitconfig = type { i32, i32, i32, ptr, %struct.anon.0, %struct.anon.1, %struct.anon.2 }
%struct.anon.0 = type { i32, i32 }
%struct.anon.1 = type { i32 }
%struct.anon.2 = type { i32 }
%struct._GLFWfbconfig = type { i32, i32, i32, i32, i32, i32, i32, i32, i32, i32, i32, i32, i32, i32, i32, i32, i64 }
%struct._GLFWwndconfig = type { i32, i32, i32, i32, ptr, i32, i32, i32, i32, i32, i32, i32, i32, i32, i32, i32, i32, %struct.anon.3, %struct.anon.4, %struct.anon.5, %struct.anon.6 }
%struct.anon.3 = type { [256 x i8] }
%struct.anon.4 = type { [256 x i8], [256 x i8] }
%struct.anon.5 = type { i32, i32 }
%struct.anon.6 = type { [256 x i8] }
%struct._GLFWctxconfig = type { i32, i32, i32, i32, i32, i32, i32, i32, i32, i32, ptr, %struct.anon.7 }
%struct.anon.7 = type { i32 }
%struct._GLFWjoystick = type { i32, i32, ptr, i32, ptr, i32, ptr, i32, [128 x i8], ptr, [33 x i8], ptr, %struct._GLFWjoystickLinux }
%struct._GLFWjoystickLinux = type { i32, [4096 x i8], [512 x i32], [64 x i32], [64 x %struct.input_absinfo], [4 x [2 x i32]] }
%struct.input_absinfo = type { i32, i32, i32, i32, i32, i32 }
%struct._GLFWtls = type { %struct._GLFWtlsPOSIX }
%struct._GLFWtlsPOSIX = type { i32, i32 }
%struct._GLFWmutex = type { %struct._GLFWmutexPOSIX }
%struct._GLFWmutexPOSIX = type { i32, %union.pthread_mutex_t }
%union.pthread_mutex_t = type { %struct.__pthread_mutex_s }
%struct.__pthread_mutex_s = type { i32, i32, i32, i32, i32, i16, i16, %struct.__pthread_internal_list }
%struct.__pthread_internal_list = type { ptr, ptr }
%struct.anon.8 = type { i64, %struct._GLFWtimerPOSIX }
%struct._GLFWtimerPOSIX = type { i32, i64 }
%struct.anon.9 = type { i32, ptr, i32, i32, i32, i32, i32, i32, i32, i32, i32, i32, i32, i32, i32, i32, i32, i32, i32, i32, ptr, ptr, ptr, ptr, ptr, ptr, ptr, ptr, ptr, ptr, ptr, ptr, ptr, ptr, ptr, ptr, ptr, ptr, ptr }
%struct.anon.10 = type { ptr, ptr, ptr, ptr, ptr, ptr, ptr, ptr }
%struct.anon.11 = type { i32, ptr, [2 x ptr], ptr, i32, i32, i32, i32, i32, i32, i32 }
%struct.anon.12 = type { ptr, ptr }
%struct._GLFWlibraryWayland = type { ptr, ptr, ptr, ptr, ptr, ptr, ptr, ptr, ptr, ptr, ptr, ptr, ptr, ptr, ptr, ptr, ptr, ptr, ptr, i32, ptr, ptr, ptr, ptr, i32, ptr, ptr, ptr, ptr, ptr, i32, i32, i32, i32, i32, i32, i32, ptr, [256 x i16], [349 x i16], [349 x [5 x i8]], %struct.anon.13, ptr, ptr, %struct.anon.14, %struct.anon.15, %struct.anon.16, %struct.anon.17 }
%struct.anon.13 = type { ptr, ptr, ptr, ptr, ptr, i32, i32, i32, i32, i32, i32, i32, ptr, ptr, ptr, ptr, ptr, ptr, ptr, ptr, ptr, ptr, ptr, ptr, ptr, ptr, ptr, ptr, ptr, ptr, ptr, ptr }
%struct.anon.14 = type { ptr, ptr, ptr, ptr, ptr, ptr, ptr, ptr, ptr, ptr, ptr, ptr, ptr, ptr, ptr, ptr, ptr, ptr, ptr, ptr }
%struct.anon.15 = type { ptr, ptr, ptr, ptr, ptr }
%struct.anon.16 = type { ptr, ptr, ptr, ptr }
%struct.anon.17 = type { ptr, ptr, ptr, i32, ptr, ptr, ptr, ptr, ptr, ptr, ptr, ptr, ptr, ptr, ptr, ptr, ptr, ptr, ptr, ptr, ptr, ptr, ptr, ptr, ptr, ptr, ptr, ptr, ptr }
%struct._GLFWlibraryX11 = type { ptr, i32, i64, float, float, i64, i64, i32, ptr, ptr, i32, ptr, ptr, [349 x [5 x i8]], [256 x i16], [349 x i16], double, double, ptr, [2 x i32], i64, i64, i64, i64, i64, i64, i64, i64, i64, i64, i64, i64, i64, i64, i64, i64, i64, i64, i64, i64, i64, i64, i64, i64, i64, i64, i64, i64, i64, i64, i64, i64, i64, i64, i64, i64, i64, i64, i64, i64, i64, i64, i64, i64, i64, i64, i64, i64, i64, i64, %struct.anon.18, %struct.anon.19, %struct.anon.20, %struct.anon.21, %struct.anon.22, %struct.anon.23, %struct.anon.24, %struct.anon.25, %struct.anon.26, %struct.anon.27, %struct.anon.28, %struct.anon.29, %struct.anon.30 }
%struct.anon.18 = type { ptr, i32, ptr, ptr, ptr, ptr, ptr, ptr, ptr, ptr, ptr, ptr, ptr, ptr, ptr, ptr, ptr, ptr, ptr, ptr, ptr, ptr, ptr, ptr, ptr, ptr, ptr, ptr, ptr, ptr, ptr, ptr, ptr, ptr, ptr, ptr, ptr, ptr, ptr, ptr, ptr, ptr, ptr, ptr, ptr, ptr, ptr, ptr, ptr, ptr, ptr, ptr, ptr, ptr, ptr, ptr, ptr, ptr, ptr, ptr, ptr, ptr, ptr, ptr, ptr, ptr, ptr, ptr, ptr, ptr, ptr, ptr, ptr, ptr, ptr, ptr, ptr, ptr, ptr, ptr, ptr, ptr, ptr, ptr, ptr, ptr, ptr, ptr }
%struct.anon.19 = type { ptr, ptr, ptr, ptr }
%struct.anon.20 = type { i32, ptr, i32, i32, i32, i32, i32, i32, ptr, ptr, ptr, ptr, ptr, ptr, ptr, ptr, ptr, ptr, ptr, ptr, ptr, ptr, ptr, ptr, ptr }
%struct.anon.21 = type { i32, i32, i32, i32, i32, i32, i32, i32, ptr, ptr, ptr, ptr, ptr, ptr, ptr, ptr, ptr }
%struct.anon.22 = type { i32, i32, i32, i32, i32 }
%struct.anon.23 = type { i32, i64, i64 }
%struct.anon.24 = type { ptr, ptr, ptr, ptr, ptr, ptr, ptr }
%struct.anon.25 = type { i32, ptr, i32, i32, ptr, ptr, ptr }
%struct.anon.26 = type { ptr, ptr }
%struct.anon.27 = type { i32, ptr, i32, i32, ptr, ptr, ptr, ptr }
%struct.anon.28 = type { i32, ptr, i32, i32, i32, i32, i32, ptr, ptr }
%struct.anon.29 = type { i32, ptr, i32, i32, i32, i32, ptr, ptr, ptr }
%struct.anon.30 = type { i32, ptr, i32, i32, i32, i32, ptr, ptr, ptr, ptr }
%struct._GLFWlibraryNull = type { i32, i32, ptr, ptr, [121 x i16], [349 x i8] }
%struct._GLFWlibraryGLX = type { i32, i32, i32, i32, ptr, ptr, ptr, ptr, ptr, ptr, ptr, ptr, ptr, ptr, ptr, ptr, ptr, ptr, ptr, ptr, ptr, ptr, ptr, ptr, i32, i32, i32, i32, i32, i32, i32, i32, i32, i32, i32, i32 }
%struct._GLFWlibraryLinux = type { i32, i32, %struct.re_pattern_buffer, i32, i32 }
%struct.re_pattern_buffer = type { ptr, i64, i64, i64, ptr, ptr, i64, i8 }
%struct.regmatch_t = type { i32, i32 }
%struct.inotify_event = type { i32, i32, i32, i32, [0 x i8] }

@_glfw = external global %struct._GLFWlibrary, align 8
@.str = private unnamed_addr constant [14 x i8] c"/dev/input/%s\00", align 1

; Function Attrs: nounwind uwtable
define internal void @closeJoystick(ptr noundef %0) #0 {
  %2 = alloca ptr, align 8
  store ptr %0, ptr %2, align 8, !tbaa !110
  %3 = load ptr, ptr %2, align 8, !tbaa !110
  call void @_glfwInputJoystick(ptr noundef %3, i32 noundef 262146)
  %4 = load ptr, ptr %2, align 8, !tbaa !110
  %5 = getelementptr inbounds nuw %struct._GLFWjoystick, ptr %4, i32 0, i32 12
  %6 = getelementptr inbounds nuw %struct._GLFWjoystickLinux, ptr %5, i32 0, i32 0
  %7 = load i32, ptr %6, align 8, !tbaa !112
  %8 = call i32 @close(i32 noundef %7)
  %9 = load ptr, ptr %2, align 8, !tbaa !110
  call void @_glfwFreeJoystick(ptr noundef %9)
  ret void
}

; Function Attrs: nounwind uwtable
define hidden void @_glfwDetectJoystickConnectionLinux() #0 {
  %1 = alloca i64, align 8
  %2 = alloca [16384 x i8], align 16
  %3 = alloca i64, align 8
  %4 = alloca %struct.regmatch_t, align 4
  %5 = alloca ptr, align 8
  %6 = alloca i32, align 4
  %7 = alloca [4096 x i8], align 16
  %8 = alloca i32, align 4
  %9 = load i32, ptr getelementptr inbounds nuw (%struct._GLFWlibrary, ptr @_glfw, i32 0, i32 25), align 8, !tbaa !3
  %10 = icmp sle i32 %9, 0
  br i1 %10, label %11, label %12

11:                                               ; preds = %0
  br label %88

12:                                               ; preds = %0
  call void @llvm.lifetime.start.p0(i64 8, ptr %1) #8
  store i64 0, ptr %1, align 8, !tbaa !93
  call void @llvm.lifetime.start.p0(i64 16384, ptr %2) #8
  call void @llvm.lifetime.start.p0(i64 8, ptr %3) #8
  %13 = load i32, ptr getelementptr inbounds nuw (%struct._GLFWlibrary, ptr @_glfw, i32 0, i32 25), align 8, !tbaa !3
  %14 = getelementptr inbounds [16384 x i8], ptr %2, i64 0, i64 0
  %15 = call i64 @read(i32 noundef %13, ptr noundef %14, i64 noundef 16384)
  store i64 %15, ptr %3, align 8, !tbaa !93
  br label %16

16:                                               ; preds = %86, %84, %12
  %17 = load i64, ptr %3, align 8, !tbaa !93
  %18 = load i64, ptr %1, align 8, !tbaa !93
  %19 = icmp sgt i64 %17, %18
  br i1 %19, label %20, label %87

20:                                               ; preds = %16
  call void @llvm.lifetime.start.p0(i64 8, ptr %4) #8
  call void @llvm.lifetime.start.p0(i64 8, ptr %5) #8
  %21 = getelementptr inbounds [16384 x i8], ptr %2, i64 0, i64 0
  %22 = load i64, ptr %1, align 8, !tbaa !93
  %23 = getelementptr inbounds i8, ptr %21, i64 %22
  store ptr %23, ptr %5, align 8, !tbaa !94
  %24 = load ptr, ptr %5, align 8, !tbaa !94
  %25 = getelementptr inbounds nuw %struct.inotify_event, ptr %24, i32 0, i32 3
  %26 = load i32, ptr %25, align 4, !tbaa !96
  %27 = zext i32 %26 to i64
  %28 = add i64 16, %27
  %29 = load i64, ptr %1, align 8, !tbaa !93
  %30 = add i64 %29, %28
  store i64 %30, ptr %1, align 8, !tbaa !93
  %31 = load ptr, ptr %5, align 8, !tbaa !94
  %32 = getelementptr inbounds nuw %struct.inotify_event, ptr %31, i32 0, i32 4
  %33 = getelementptr inbounds [0 x i8], ptr %32, i64 0, i64 0
  %34 = call i32 @regexec(ptr noundef getelementptr inbounds nuw (%struct._GLFWlibraryLinux, ptr getelementptr inbounds nuw (%struct._GLFWlibrary, ptr @_glfw, i32 0, i32 25), i32 0, i32 2), ptr noundef %33, i64 noundef 1, ptr noundef %4, i32 noundef 0)
  %35 = icmp ne i32 %34, 0
  br i1 %35, label %36, label %37

36:                                               ; preds = %20
  store i32 2, ptr %6, align 4
  br label %84

37:                                               ; preds = %20
  call void @llvm.lifetime.start.p0(i64 4096, ptr %7) #8
  %38 = getelementptr inbounds [4096 x i8], ptr %7, i64 0, i64 0
  %39 = load ptr, ptr %5, align 8, !tbaa !94
  %40 = getelementptr inbounds nuw %struct.inotify_event, ptr %39, i32 0, i32 4
  %41 = getelementptr inbounds [0 x i8], ptr %40, i64 0, i64 0
  %42 = call i32 (ptr, i64, ptr, ...) @snprintf(ptr noundef %38, i64 noundef 4096, ptr noundef @.str, ptr noundef %41) #8
  %43 = load ptr, ptr %5, align 8, !tbaa !94
  %44 = getelementptr inbounds nuw %struct.inotify_event, ptr %43, i32 0, i32 1
  %45 = load i32, ptr %44, align 4, !tbaa !96
  %46 = and i32 %45, 260
  %47 = icmp ne i32 %46, 0
  br i1 %47, label %48, label %51

48:                                               ; preds = %37
  %49 = getelementptr inbounds [4096 x i8], ptr %7, i64 0, i64 0
  %50 = call i32 @openJoystickDevice(ptr noundef %49)
  br label %83

51:                                               ; preds = %37
  %52 = load ptr, ptr %5, align 8, !tbaa !94
  %53 = getelementptr inbounds nuw %struct.inotify_event, ptr %52, i32 0, i32 1
  %54 = load i32, ptr %53, align 4, !tbaa !96
  %55 = and i32 %54, 512
  %56 = icmp ne i32 %55, 0
  br i1 %56, label %57, label %82

57:                                               ; preds = %51
  call void @llvm.lifetime.start.p0(i64 4, ptr %8) #8
  store i32 0, ptr %8, align 4, !tbaa !96
  br label %58

58:                                               ; preds = %77, %57
  %59 = load i32, ptr %8, align 4, !tbaa !96
  %60 = icmp sle i32 %59, 15
  br i1 %60, label %62, label %61

61:                                               ; preds = %58
  store i32 4, ptr %6, align 4
  br label %80

62:                                               ; preds = %58
  %63 = load i32, ptr %8, align 4, !tbaa !96
  %64 = sext i32 %63 to i64
  %65 = getelementptr inbounds [16 x %struct._GLFWjoystick], ptr getelementptr inbounds nuw (%struct._GLFWlibrary, ptr @_glfw, i32 0, i32 10), i64 0, i64 %64
  %66 = getelementptr inbounds nuw %struct._GLFWjoystick, ptr %65, i32 0, i32 12
  %67 = getelementptr inbounds nuw %struct._GLFWjoystickLinux, ptr %66, i32 0, i32 1
  %68 = getelementptr inbounds [4096 x i8], ptr %67, i64 0, i64 0
  %69 = getelementptr inbounds [4096 x i8], ptr %7, i64 0, i64 0
  %70 = call i32 @strcmp(ptr noundef %68, ptr noundef %69) #9
  %71 = icmp eq i32 %70, 0
  br i1 %71, label %72, label %76

72:                                               ; preds = %62
  %73 = load i32, ptr %8, align 4, !tbaa !96
  %74 = sext i32 %73 to i64
  %75 = getelementptr inbounds %struct._GLFWjoystick, ptr getelementptr inbounds nuw (%struct._GLFWlibrary, ptr @_glfw, i32 0, i32 10), i64 %74
  call void @closeJoystick(ptr noundef %75)
  store i32 4, ptr %6, align 4
  br label %80

76:                                               ; preds = %62
  br label %77

77:                                               ; preds = %76
  %78 = load i32, ptr %8, align 4, !tbaa !96
  %79 = add nsw i32 %78, 1
  store i32 %79, ptr %8, align 4, !tbaa !96
  br label %58

80:                                               ; preds = %72, %61
  call void @llvm.lifetime.end.p0(i64 4, ptr %8) #8
  br label %81

81:                                               ; preds = %80
  br label %82

82:                                               ; preds = %81, %51
  br label %83

83:                                               ; preds = %82, %48
  call void @llvm.lifetime.end.p0(i64 4096, ptr %7) #8
  store i32 0, ptr %6, align 4
  br label %84

84:                                               ; preds = %83, %36
  call void @llvm.lifetime.end.p0(i64 8, ptr %5) #8
  call void @llvm.lifetime.end.p0(i64 8, ptr %4) #8
  %85 = load i32, ptr %6, align 4
  switch i32 %85, label %89 [
    i32 0, label %86
    i32 2, label %16
  ]

86:                                               ; preds = %84
  br label %16

87:                                               ; preds = %16
  call void @llvm.lifetime.end.p0(i64 8, ptr %3) #8
  call void @llvm.lifetime.end.p0(i64 16384, ptr %2) #8
  call void @llvm.lifetime.end.p0(i64 8, ptr %1) #8
  br label %88

88:                                               ; preds = %87, %11
  ret void

89:                                               ; preds = %84
  unreachable
}