; Function Attrs: nounwind uwtable
define hidden void @_glfwDetectJoystickConnectionLinux() local_unnamed_addr #0 {
  %1 = alloca [16384 x i8], align 16
  %2 = alloca %struct.regmatch_t, align 4
  %3 = alloca [4096 x i8], align 16
  %4 = load i32, ptr getelementptr inbounds nuw (i8, ptr @_glfw, i64 143584), align 8, !tbaa !3
  %5 = icmp slt i32 %4, 1
  br i1 %5, label %36, label %6

6:                                                ; preds = %0
  call void @llvm.lifetime.start.p0(i64 16384, ptr nonnull %1) #13
  %7 = call i64 @read(i32 noundef %4, ptr noundef nonnull %1, i64 noundef 16384) #13
  %8 = icmp sgt i64 %7, 0
  br i1 %8, label %.lr.ph, label %._crit_edge

.lr.ph:                                           ; preds = %6, %34
  %.01216 = phi i64 [ %14, %34 ], [ 0, %6 ]
  call void @llvm.lifetime.start.p0(i64 8, ptr nonnull %2) #13
  %9 = getelementptr inbounds i8, ptr %1, i64 %.01216
  %10 = getelementptr inbounds nuw i8, ptr %9, i64 12
  %11 = load i32, ptr %10, align 4, !tbaa !93
  %12 = zext i32 %11 to i64
  %13 = add i64 %.01216, 16
  %14 = add i64 %13, %12
  %15 = getelementptr inbounds nuw i8, ptr %9, i64 16
  %16 = call i32 @regexec(ptr noundef nonnull getelementptr inbounds nuw (i8, ptr @_glfw, i64 143592), ptr noundef nonnull %15, i64 noundef 1, ptr noundef nonnull %2, i32 noundef 0) #13
  %.not = icmp eq i32 %16, 0
  br i1 %.not, label %17, label %34

17:                                               ; preds = %.lr.ph
  call void @llvm.lifetime.start.p0(i64 4096, ptr nonnull %3) #13
  %18 = call i32 (ptr, i64, ptr, ...) @snprintf(ptr noundef nonnull dereferenceable(1) %3, i64 noundef 4096, ptr noundef nonnull @.str, ptr noundef nonnull %15) #13
  %19 = getelementptr inbounds nuw i8, ptr %9, i64 4
  %20 = load i32, ptr %19, align 4, !tbaa !93
  %21 = and i32 %20, 260
  %.not13 = icmp eq i32 %21, 0
  br i1 %.not13, label %24, label %22

22:                                               ; preds = %17
  %23 = call fastcc i32 @openJoystickDevice(ptr noundef %3)
  br label %.loopexit

24:                                               ; preds = %17
  %25 = and i32 %20, 512
  %.not14 = icmp eq i32 %25, 0
  br i1 %.not14, label %.loopexit, label %.preheader

26:                                               ; preds = %.preheader
  %indvars.iv.next = add nuw nsw i64 %indvars.iv, 1
  %exitcond.not = icmp eq i64 %indvars.iv.next, 16
  br i1 %exitcond.not, label %.loopexit, label %.preheader

.preheader:                                       ; preds = %24, %26
  %indvars.iv = phi i64 [ %indvars.iv.next, %26 ], [ 0, %24 ]
  %.idx = mul nuw nsw i64 %indvars.iv, 8216
  %gep = getelementptr inbounds nuw i8, ptr getelementptr inbounds nuw (i8, ptr @_glfw, i64 2180), i64 %.idx
  %27 = call i32 @strcmp(ptr noundef nonnull dereferenceable(1) %gep, ptr noundef nonnull dereferenceable(1) %3) #14
  %28 = icmp eq i32 %27, 0
  br i1 %28, label %29, label %26

29:                                               ; preds = %.preheader
  %30 = getelementptr inbounds nuw %struct._GLFWjoystick, ptr getelementptr inbounds nuw (i8, ptr @_glfw, i64 1936), i64 %indvars.iv
  call void @_glfwInputJoystick(ptr noundef nonnull %30, i32 noundef 262146) #13
  %31 = getelementptr inbounds nuw i8, ptr %30, i64 240
  %32 = load i32, ptr %31, align 8, !tbaa !94
  %33 = call i32 @close(i32 noundef %32) #13
  call void @_glfwFreeJoystick(ptr noundef nonnull %30) #13
  br label %.loopexit

.loopexit:                                        ; preds = %26, %29, %24, %22
  call void @llvm.lifetime.end.p0(i64 4096, ptr nonnull %3) #13
  br label %34

34:                                               ; preds = %.lr.ph, %.loopexit
  call void @llvm.lifetime.end.p0(i64 8, ptr nonnull %2) #13
  %35 = icmp sgt i64 %7, %14
  br i1 %35, label %.lr.ph, label %._crit_edge

._crit_edge:                                      ; preds = %34, %6
  call void @llvm.lifetime.end.p0(i64 16384, ptr nonnull %1) #13
  br label %36

36:                                               ; preds = %0, %._crit_edge
  ret void
}